******************************************************************************
                  TI ARM Linker PC v20.2.5                     
******************************************************************************
>> Linked Wed Mar 16 10:21:57 2022

OUTPUT FILE NAME:   <DroneProject.out>
ENTRY POINT SYMBOL: "_c_int00_noargs"  address: 00008b45


MEMORY CONFIGURATION

         name            origin    length      used     unused   attr    fill
----------------------  --------  ---------  --------  --------  ----  --------
  FLASH                 00000000   00040000  000097c6  0003683a  R  X
  SRAM                  20000000   00008000  00002ba7  00005459  RW X


SEGMENT ALLOCATION MAP

run origin  load origin   length   init length attrs members
----------  ----------- ---------- ----------- ----- -------
00000000    00000000    000097c8   000097c8    r-x
  00000000    00000000    0000026c   0000026c    r-- .intvecs
  0000026c    0000026c    00008f8a   00008f8a    r-x .text
  000091f8    000091f8    00000560   00000560    r-- .const
  00009758    00009758    00000070   00000070    r-- .cinit
20000000    20000000    00002bac   00000000    rw-
  20000000    20000000    0000026c   00000000    rw- .vtable
  20000270    20000270    00001000   00000000    rw- .stack
  20001270    20001270    00001000   00000000    rw- .sysmem
  20002270    20002270    00000883   00000000    rw- .bss
  20002af4    20002af4    000000b8   00000000    rw- .data


SECTION ALLOCATION MAP

 output                                  attributes/
section   page    origin      length       input sections
--------  ----  ----------  ----------   ----------------
.intvecs   0    00000000    0000026c     
                  00000000    0000026c     startup_ccs.obj (.intvecs)

.text      0    0000026c    00008f8a     
                  0000026c    00000a4e     rtsv7M4_T_le_v4SPD16_eabi.lib : _printfi.c.obj (.text:__TI_printfi)
                  00000cba    00000002     startup_ccs.obj (.text:FaultISR)
                  00000cbc    000009d0     rtsv7M4_T_le_v4SPD16_eabi.lib : e_pow.c.obj (.text:pow)
                  0000168c    00000997     main.obj (.text:main)
                  00002023    00000001     --HOLE-- [fill = 0]
                  00002024    00000978     PWM.obj (.text:Motor_ManMixer)
                  0000299c    000004f0     BMX160.obj (.text:BMX160_getAllData)
                  00002e8c    00000358     BMX160.obj (.text:BMX160_showData)
                  000031e4    00000354     main.obj (.text:UARTvprintf)
                  00003538    0000031c     BMP388.obj (.text:BMP388_parse_calib_data)
                  00003854    000002a8     OrangeRX.obj (.text:OrangeRX_Init)
                  00003afc    0000029a     BMP388.obj (.text:BMP388_compensate_pressure)
                  00003d96    00000002     startup_ccs.obj (.text:IntDefaultHandler)
                  00003d98    00000270     BMP388.obj (.text:BMP388_begin)
                  00004008    00000270     rtsv7M4_T_le_v4SPD16_eabi.lib : _printfi.c.obj (.text:_pconv_a)
                  00004278    00000214     PWM.obj (.text:Motor_setDuty)
                  0000448c    00000201     BMP388.obj (.text:BMP388_set_config)
                  0000468d    00000001     --HOLE-- [fill = 0]
                  0000468e    00000002     startup_ccs.obj (.text:NmiSR)
                  00004690    000001f8     OrangeRX.obj (.text:OrangeRX_extractData)
                  00004888    000001e0     PWM.obj (.text:PWM_Init)
                  00004a68    000001dc     BMP388.obj (.text:BMP388_user_i2c_read)
                  00004c44    000001d4     BMP388.obj (.text:BMP388_showData)
                  00004e18    000001d0     rtsv7M4_T_le_v4SPD16_eabi.lib : _printfi.c.obj (.text:_pconv_g)
                  00004fe8    000001b6                                   : fd_add_t2.asm.obj (.text)
                  0000519e    00000002                                   : _lock.c.obj (.text:_nop)
                  000051a0    000001a0     BMP388.obj (.text:BMP388_reset)
                  00005340    00000188     main.obj (.text:UARTStdioIntHandler)
                  000054c8    0000016c     driverlib.lib : gpio.obj (.text:GPIOPadConfigSet)
                  00005634    00000158     rtsv7M4_T_le_v4SPD16_eabi.lib : e_sqrt.c.obj (.text:sqrt)
                  0000578c    00000143     i2c.obj (.text:I2C_AddressBruteForcer)
                  000058cf    00000001     --HOLE-- [fill = 0]
                  000058d0    0000013c     rtsv7M4_T_le_v4SPD16_eabi.lib : _printfi.c.obj (.text:_pconv_e)
                  00005a0c    00000138     main.obj (.text:UARTStdioConfig)
                  00005b44    00000136     rtsv7M4_T_le_v4SPD16_eabi.lib : fd_div_t2.asm.obj (.text)
                  00005c7a    00000002                                   : div0.asm.obj (.text)
                  00005c7c    00000134     BMP388.obj (.text:BMP388_Init)
                  00005db0    00000128     OrangeRX.obj (.text:OrangeRX_showActData)
                  00005ed8    00000124     rtsv7M4_T_le_v4SPD16_eabi.lib : _printfi.c.obj (.text:fcvt)
                  00005ffc    00000118     BMP388.obj (.text:BMP388_user_i2c_write)
                  00006114    00000118     driverlib.lib : sysctl.obj (.text:SysCtlClockGet)
                  0000622c    00000114     main.obj (.text:UARTwrite)
                  00006340    00000110     rtsv7M4_T_le_v4SPD16_eabi.lib : s_scalbn.c.obj (.text:scalbn)
                  00006450    0000010c     BMP388.obj (.text:BMP388_get_sensor_data)
                  0000655c    00000100     i2c.obj (.text:I2C_writeSingleReg)
                  0000665c    00000100     rtsv7M4_T_le_v4SPD16_eabi.lib : memory.c.obj (.text:aligned_alloc)
                  0000675c    000000fc     BMX160.obj (.text:BMX160_Init)
                  00006858    000000fc     rtsv7M4_T_le_v4SPD16_eabi.lib : fd_mul_t2.asm.obj (.text)
                  00006954    000000f8                                   : s_floor.c.obj (.text:floor)
                  00006a4c    000000f4     driverlib.lib : sysctl.obj (.text:SysCtlClockSet)
                  00006b40    000000f0     buzzer.obj (.text:BUZZ_SM)
                  00006c30    000000e4     OrangeRX.obj (.text:OrangeRX_receivedChannelReorganizer)
                  00006d14    000000d6     BMX160.obj (.text:BMX160_setMagnConf)
                  00006dea    00000002     --HOLE-- [fill = 0]
                  00006dec    000000c4     rtsv7M4_T_le_v4SPD16_eabi.lib : s_round.c.obj (.text:round)
                  00006eb0    000000be     BMX160.obj (.text:BMX160_begin)
                  00006f6e    00000002     --HOLE-- [fill = 0]
                  00006f70    000000bc     rtsv7M4_T_le_v4SPD16_eabi.lib : s_trunc.c.obj (.text:trunc)
                  0000702c    000000b1                                   : _printfi.c.obj (.text:_ltostr)
                  000070dd    00000003     --HOLE-- [fill = 0]
                  000070e0    000000ad     BMP388.obj (.text:BMP388_compensate_data)
                  0000718d    00000003     --HOLE-- [fill = 0]
                  00007190    000000ab     BMP388.obj (.text:BMP388_get_calib_data)
                  0000723b    00000001     --HOLE-- [fill = 0]
                  0000723c    000000a4     BMP388.obj (.text:BMP388_set_regs)
                  000072e0    0000009c     rtsv7M4_T_le_v4SPD16_eabi.lib : memcpy_t2.asm.obj (.text)
                  0000737c    00000096                                   : ull_div_t2.asm.obj (.text)
                  00007412    00000002     --HOLE-- [fill = 0]
                  00007414    00000094     BMX160.obj (.text:BMX160_softReset)
                  000074a8    00000094     main.obj (.text:UARTPrimeTransmit)
                  0000753c    0000008a     BMX160.obj (.text:BMX160_defaultParamSettg)
                  000075c6    00000002     --HOLE-- [fill = 0]
                  000075c8    00000088     BMP388.obj (.text:BMP388_get_regs)
                  00007650    00000086     rtsv7M4_T_le_v4SPD16_eabi.lib : fd_cmp_t2.asm.obj (.text:__aeabi_cdcmple)
                  000076d6    00000086                                   : fd_cmp_t2.asm.obj (.text:__aeabi_cdrcmple)
                  0000775c    00000084     i2c.obj (.text:PCF8574A_Read)
                  000077e0    00000080     i2c.obj (.text:I2C0_Init)
                  00007860    00000080     uart.obj (.text:UART0_STDIO_Init)
                  000078e0    0000007c     BMP388.obj (.text:BMP388_readAltitude)
                  0000795c    0000007a     rtsv7M4_T_le_v4SPD16_eabi.lib : memset_t2.asm.obj (.text)
                  000079d6    00000002     --HOLE-- [fill = 0]
                  000079d8    00000074     LPF.obj (.text:applyLPF)
                  00007a4c    00000070     rtsv7M4_T_le_v4SPD16_eabi.lib : memory.c.obj (.text:split)
                  00007abc    0000006e     BMP388.obj (.text:BMP388_compensate_temperature)
                  00007b2a    0000006e     rtsv7M4_T_le_v4SPD16_eabi.lib : _printfi.c.obj (.text:_mcpy)
                  00007b98    0000006e                                   : fd_tos_t2.asm.obj (.text)
                  00007c06    0000006c     BMP388.obj (.text:BMP388_parse_sensor_data)
                  00007c72    00000002     --HOLE-- [fill = 0]
                  00007c74    0000006c     i2c.obj (.text:I2C_ReadByte)
                  00007ce0    00000068     driverlib.lib : interrupt.obj (.text:IntEnable)
                  00007d48    00000068     rtsv7M4_T_le_v4SPD16_eabi.lib : copy_decompress_lzss.c.obj (.text:decompress:lzss:__TI_decompress_lzss)
                  00007db0    00000064     BMP388.obj (.text:BMP388_Int_Handler)
                  00007e14    00000064     rtsv7M4_T_le_v4SPD16_eabi.lib : s_frexp.c.obj (.text:frexp)
                  00007e78    00000063     BMP388.obj (.text:BMP388_readPressure)
                  00007edb    00000001     --HOLE-- [fill = 0]
                  00007edc    00000063     BMX160.obj (.text:BMX160_writeBmxReg)
                  00007f3f    00000001     --HOLE-- [fill = 0]
                  00007f40    00000061     main.obj (.text:__error__)
                  00007fa1    00000003     --HOLE-- [fill = 0]
                  00007fa4    00000060     i2c.obj (.text:PCF8574A_Write)
                  00008004    00000060     SONAR.obj (.text:SONAR_Trigger)
                  00008064    00000060     driverlib.lib : timer.obj (.text:TimerConfigure)
                  000080c4    0000005c     OrangeRX.obj (.text:OrangeRX_isConnected)
                  00008120    00000058     driverlib.lib : gpio.obj (.text:GPIOIntTypeSet)
                  00008178    00000056     i2c.obj (.text:I2C_readReg)
                  000081ce    00000056     rtsv7M4_T_le_v4SPD16_eabi.lib : _printfi.c.obj (.text:_pconv_f)
                  00008224    00000054                                   : _ltoa.c.obj (.text:__TI_ltoa)
                  00008278    00000052                                   : _printfi.c.obj (.text:_ecpy)
                  000082ca    00000002     --HOLE-- [fill = 0]
                  000082cc    0000004d     OrangeRX.obj (.text:OrangeRX_showStatus)
                  00008319    00000003     --HOLE-- [fill = 0]
                  0000831c    0000004c     driverlib.lib : gpio.obj (.text:GPIOPinConfigure)
                  00008368    0000004c                   : i2c.obj (.text:I2CMasterInitExpClk)
                  000083b4    0000004c     onBoardSwitch.obj (.text:SWITCH_Init)
                  00008400    0000004c     SysTick.obj (.text:SYSTICK_Delay)
                  0000844c    0000004c     main.obj (.text:SystemInitialize)
                  00008498    0000004c     main.obj (.text:UARTFlushTx)
                  000084e4    0000004c     driverlib.lib : timer.obj (.text:_TimerIntNumberGet)
                  00008530    0000004c     rtsv7M4_T_le_v4SPD16_eabi.lib : atoi.c.obj (.text:atoi)
                  0000857c    00000048                                   : fd_toi_t2.asm.obj (.text)
                  000085c4    00000044     driverlib.lib : i2c.obj (.text:I2CMasterGlitchFilterConfigSet)
                  00008608    00000044                   : gpio.obj (.text:_GPIOIntNumberGet)
                  0000864c    00000044     rtsv7M4_T_le_v4SPD16_eabi.lib : autoinit.c.obj (.text:__TI_auto_init_nobinit_nopinit:__TI_auto_init_nobinit_nopinit)
                  00008690    00000040     driverlib.lib : uart.obj (.text:_UARTIntNumberGet)
                  000086d0    00000040     rtsv7M4_T_le_v4SPD16_eabi.lib : u_divt2.asm.obj (.text)
                  00008710    00000040                                   : sprintf.c.obj (.text:sprintf)
                  00008750    0000003e     i2c.obj (.text:PCF8574A_Init)
                  0000878e    0000003e     rtsv7M4_T_le_v4SPD16_eabi.lib : _printfi.c.obj (.text:_fcpy)
                  000087cc    0000003c     buzzer.obj (.text:BUZZ_BUZZER)
                  00008808    0000003c     main.obj (.text:IsBufferFull)
                  00008844    0000003c     main.obj (.text:UARTgetc)
                  00008880    0000003a     BMP388.obj (.text:BMP388_read_all_regs)
                  000088ba    00000002     --HOLE-- [fill = 0]
                  000088bc    00000038     BMP388.obj (.text:BMP388_Int_Configure)
                  000088f4    00000038     driverlib.lib : sysctl.obj (.text:SysCtlPeripheralReady)
                  0000892c    00000038     SysFlag.obj (.text:SysFlag_Check)
                  00008964    00000038     uart.obj (.text:UART0_STDIO_IntHandler)
                  0000899c    00000038     rtsv7M4_T_le_v4SPD16_eabi.lib : fs_tod_t2.asm.obj (.text)
                  000089d4    00000036     BMX160.obj (.text:BMX160_softResetWorker)
                  00008a0a    00000002     --HOLE-- [fill = 0]
                  00008a0c    00000034     driverlib.lib : interrupt.obj (.text:IntRegister)
                  00008a40    00000034     led.obj (.text:LED_LEDInit)
                  00008a74    00000034     driverlib.lib : sysctl.obj (.text:SysCtlPeripheralEnable)
                  00008aa8    00000034     SysFlag.obj (.text:SysFlag_Clear)
                  00008adc    00000034     SysFlag.obj (.text:SysFlag_Set)
                  00008b10    00000034     main.obj (.text:UARTFlushRx)
                  00008b44    00000034     rtsv7M4_T_le_v4SPD16_eabi.lib : boot_cortex_m.c.obj (.text:_c_int00_noargs:_c_int00_noargs)
                  00008b78    00000034     buzzer.obj (.text:init_Buzzer)
                  00008bac    0000002e     rtsv7M4_T_le_v4SPD16_eabi.lib : i_tofd_t2.asm.obj (.text)
                  00008bda    00000002     --HOLE-- [fill = 0]
                  00008bdc    0000002c     buzzer.obj (.text:BUZZ_BUZZ)
                  00008c08    0000002c     driverlib.lib : gpio.obj (.text:GPIODirModeSet)
                  00008c34    0000002c     main.obj (.text:IsBufferEmpty)
                  00008c60    0000002c     main.obj (.text:UARTEchoSet)
                  00008c8c    00000028     rtsv7M4_T_le_v4SPD16_eabi.lib : memory.c.obj (.text:free_list_insert)
                  00008cb4    00000026     BMX160.obj (.text:BMX160_readReg)
                  00008cda    00000002     --HOLE-- [fill = 0]
                  00008cdc    00000024     onBoardSwitch.obj (.text:SWITCH_SW1_Pressed)
                  00008d00    00000024     onBoardSwitch.obj (.text:SWITCH_SW2_Pressed)
                  00008d24    00000024     main.obj (.text:UARTprintf)
                  00008d48    00000022     BMX160.obj (.text:BMX160_scan)
                  00008d6a    00000022     driverlib.lib : pwm.obj (.text:PWMGenConfigure)
                  00008d8c    00000020     OrangeRX.obj (.text:OrangeRX_IntHandler)
                  00008dac    00000020     SysTick.obj (.text:SysTick_Init)
                  00008dcc    00000020     rtsv7M4_T_le_v4SPD16_eabi.lib : u_tofd_t2.asm.obj (.text)
                  00008dec    0000001e     driverlib.lib : pwm.obj (.text:PWMPulseWidthGet)
                  00008e0a    0000001e                   : pwm.obj (.text:PWMPulseWidthSet)
                  00008e28    0000001c                   : systick.obj (.text:SysTickIntRegister)
                  00008e44    0000001c     rtsv7M4_T_le_v4SPD16_eabi.lib : memory.c.obj (.text:free_list_remove)
                  00008e60    0000001c                                   : memccpy.c.obj (.text:memccpy)
                  00008e7c    0000001a     driverlib.lib : gpio.obj (.text:GPIOPinTypeGPIOOutput)
                  00008e96    0000001a     rtsv7M4_T_le_v4SPD16_eabi.lib : s_copysign.c.obj (.text:copysign)
                  00008eb0    00000018     BMP388.obj (.text:BMP388_set_i2c_addr)
                  00008ec8    00000018     driverlib.lib : gpio.obj (.text:GPIOIntRegister)
                  00008ee0    00000018                   : sysctl.obj (.text:SysCtlPWMClockGet)
                  00008ef8    00000018                   : timer.obj (.text:TimerIntRegister)
                  00008f10    00000018                   : uart.obj (.text:UARTIntRegister)
                  00008f28    00000018     rtsv7M4_T_le_v4SPD16_eabi.lib : sprintf.c.obj (.text:_outs)
                  00008f40    00000016     driverlib.lib : gpio.obj (.text:GPIOPinTypeGPIOInput)
                  00008f56    00000016                   : gpio.obj (.text:GPIOPinTypeI2C)
                  00008f6c    00000016                   : gpio.obj (.text:GPIOPinTypeI2CSCL)
                  00008f82    00000016                   : gpio.obj (.text:GPIOPinTypePWM)
                  00008f98    00000016                   : gpio.obj (.text:GPIOPinTypeTimer)
                  00008fae    00000016                   : gpio.obj (.text:GPIOPinTypeUART)
                  00008fc4    00000016                   : i2c.obj (.text:I2CMasterErr)
                  00008fda    00000016                   : timer.obj (.text:TimerControlEvent)
                  00008ff0    00000016     rtsv7M4_T_le_v4SPD16_eabi.lib : strchr.c.obj (.text:strchr)
                  00009006    00000002     --HOLE-- [fill = 0]
                  00009008    00000014     driverlib.lib : sysctl.obj (.text:SysCtlPWMClockSet)
                  0000901c    00000014                   : sysctl.obj (.text:SysCtlResetCauseClear)
                  00009030    00000014                   : systick.obj (.text:SysTickEnable)
                  00009044    00000014                   : systick.obj (.text:SysTickIntEnable)
                  00009058    00000014     rtsv7M4_T_le_v4SPD16_eabi.lib : strlen.c.obj (.text:strlen)
                  0000906c    00000012     driverlib.lib : pwm.obj (.text:PWMGenPeriodGet)
                  0000907e    00000012                   : pwm.obj (.text:PWMOutputState)
                  00009090    00000012                   : timer.obj (.text:TimerLoadSet)
                  000090a2    00000012                   : timer.obj (.text:TimerMatchSet)
                  000090b4    00000012     rtsv7M4_T_le_v4SPD16_eabi.lib : wcslen.c.obj (.text:wcslen)
                  000090c6    00000010     driverlib.lib : pwm.obj (.text:PWMGenPeriodSet)
                  000090d6    00000002     --HOLE-- [fill = 0]
                  000090d8    00000010     sysclk.obj (.text:SysClk_Init)
                  000090e8    00000010     driverlib.lib : systick.obj (.text:SysTickPeriodSet)
                  000090f8    0000000e                   : timer.obj (.text:TimerEnable)
                  00009106    0000000e     rtsv7M4_T_le_v4SPD16_eabi.lib : copy_decompress_none.c.obj (.text:decompress:none:__TI_decompress_none)
                  00009114    0000000c     BMP388.obj (.text:BMP388_user_delay_ms)
                  00009120    0000000c     driverlib.lib : gpio.obj (.text:GPIOIntEnable)
                  0000912c    0000000c                   : pwm.obj (.text:PWMGenEnable)
                  00009138    0000000c                   : sysctl.obj (.text:SysCtlResetCauseGet)
                  00009144    0000000c     SysFlag.obj (.text:SysFlag_Init)
                  00009150    0000000c     rtsv7M4_T_le_v4SPD16_eabi.lib : copy_zero_init.c.obj (.text:decompress:ZI:__TI_zero_init)
                  0000915c    0000000a     driverlib.lib : i2c.obj (.text:I2CMasterEnable)
                  00009166    0000000a     SysTick.obj (.text:SysTick_IntHandler)
                  00009170    0000000a     driverlib.lib : timer.obj (.text:TimerValueGet)
                  0000917a    0000000a                   : uart.obj (.text:UARTIntStatus)
                  00009184    0000000a     rtsv7M4_T_le_v4SPD16_eabi.lib : sprintf.c.obj (.text:_outc)
                  0000918e    00000008     driverlib.lib : i2c.obj (.text:I2CMasterBusy)
                  00009196    00000008                   : i2c.obj (.text:I2CMasterSlaveAddrSet)
                  0000919e    00000008                   : timer.obj (.text:TimerIntEnable)
                  000091a6    00000008                   : uart.obj (.text:UARTIntEnable)
                  000091ae    00000002     --HOLE-- [fill = 0]
                  000091b0    00000008     rtsv7M4_T_le_v4SPD16_eabi.lib : errno.c.obj (.text:__aeabi_errno_addr)
                  000091b8    00000008                                   : memory.c.obj (.text:malloc)
                  000091c0    00000006     driverlib.lib : gpio.obj (.text:GPIOPinRead)
                  000091c6    00000006                   : gpio.obj (.text:GPIOPinWrite)
                  000091cc    00000006     startup_ccs.obj (.text:ResetISR)
                  000091d2    00000006     driverlib.lib : sysctl.obj (.text:SysCtlDelay)
                  000091d8    00000006                   : uart.obj (.text:UARTClockSourceSet)
                  000091de    00000004                   : i2c.obj (.text:I2CMasterControl)
                  000091e2    00000004                   : i2c.obj (.text:I2CMasterDataGet)
                  000091e6    00000004                   : i2c.obj (.text:I2CMasterDataPut)
                  000091ea    00000004                   : timer.obj (.text:TimerIntClear)
                  000091ee    00000004     rtsv7M4_T_le_v4SPD16_eabi.lib : pre_init.c.obj (.text:_system_pre_init)
                  000091f2    00000004                                   : exit.c.obj (.text:abort:abort)

.const     0    000091f8    00000560     
                  000091f8    00000101     rtsv7M4_T_le_v4SPD16_eabi.lib : ctype.c.obj (.const:.string:_ctypes_)
                  000092f9    00000003     --HOLE-- [fill = 0]
                  000092fc    000000d8     driverlib.lib : gpio.obj (.const:g_ppui32GPIOIntMapSnowflake)
                  000093d4    000000c0                   : gpio.obj (.const:g_ppui32GPIOIntMapBlizzard)
                  00009494    00000090                   : gpio.obj (.const:g_pui32GPIOBaseAddrs)
                  00009524    0000006c                   : sysctl.obj (.const:g_pui32Xtals)
                  00009590    00000060                   : timer.obj (.const:g_ppui32TimerIntMap)
                  000095f0    00000040                   : timer.obj (.const:g_ppui32TimerIntMapSnowflake)
                  00009630    00000040                   : uart.obj (.const:g_ppui32UARTIntMap)
                  00009670    00000040                   : uart.obj (.const:g_ppui32UARTIntMapSnowflake)
                  000096b0    00000030     rtsv7M4_T_le_v4SPD16_eabi.lib : e_pow.c.obj (.const:$O1$$)
                  000096e0    00000020     PWM.obj (.const:subtract_Motor)
                  00009700    00000014     driverlib.lib : interrupt.obj (.const:g_pui32EnRegs)
                  00009714    00000012     main.obj (.const:.string)
                  00009726    00000002     --HOLE-- [fill = 0]
                  00009728    0000000c     main.obj (.const:g_ui32UARTBase)
                  00009734    0000000c     main.obj (.const:g_ui32UARTInt)
                  00009740    0000000c     main.obj (.const:g_ui32UARTPeriph)
                  0000974c    00000008     BMP388.obj (.const:$P$T0$2)
                  00009754    00000004     main.obj (.const)

.cinit     0    00009758    00000070     
                  00009758    0000003c     (.cinit..data.load) [load image, compression = lzss]
                  00009794    0000000c     (__TI_handler_table)
                  000097a0    00000008     (.cinit..bss.load) [load image, compression = zero_init]
                  000097a8    00000008     (.cinit..vtable.load) [load image, compression = zero_init]
                  000097b0    00000018     (__TI_cinit_table)

.init_array 
*          0    00000000    00000000     UNINITIALIZED

.vtable    0    20000000    0000026c     UNINITIALIZED
                  20000000    0000026c     driverlib.lib : interrupt.obj (.vtable)

.stack     0    20000270    00001000     UNINITIALIZED
                  20000270    00000004     rtsv7M4_T_le_v4SPD16_eabi.lib : boot_cortex_m.c.obj (.stack)
                  20000274    00000ffc     --HOLE--

.sysmem    0    20001270    00001000     UNINITIALIZED
                  20001270    00000010     rtsv7M4_T_le_v4SPD16_eabi.lib : memory.c.obj (.sysmem)
                  20001280    00000ff0     --HOLE--

.bss       0    20002270    00000883     UNINITIALIZED
                  20002270    00000400     main.obj (.bss:g_pcUARTTxBuffer)
                  20002670    00000190     (.common:rx_data)
                  20002800    00000120     (.common:mixer)
                  20002920    000000d0     (.common:dev)
                  200029f0    00000080     main.obj (.bss:g_pcUARTRxBuffer)
                  20002a70    00000038     (.common:rx_text)
                  20002aa8    00000020     (.common:dutyOf)
                  20002ac8    00000008     main.obj (.bss)
                  20002ad0    00000004     buzzer.obj (.bss)
                  20002ad4    00000004     (.common:Oaccel)
                  20002ad8    00000004     (.common:Obmx160)
                  20002adc    00000004     (.common:Ogyro)
                  20002ae0    00000004     (.common:Omagn)
                  20002ae4    00000004     (.common:g_uiSysFlags)
                  20002ae8    00000004     (.common:resetCause)
                  20002aec    00000002     (.common:buzDuration)
                  20002aee    00000002     (.common:count)
                  20002af0    00000002     (.common:pauseTime)
                  20002af2    00000001     (.common:BMP388_addr)

.data      0    20002af4    000000b8     UNINITIALIZED
                  20002af4    0000002e     main.obj (.data)
                  20002b22    00000002     OrangeRX.obj (.data)
                  20002b24    00000018     BMX160.obj (.data:acc_low_pass$3)
                  20002b3c    00000018     BMX160.obj (.data:gyro_low_pass$2)
                  20002b54    00000018     BMX160.obj (.data:mag_low_pass$1)
                  20002b6c    00000010     PWM.obj (.data:Channel_Tune_Variable)
                  20002b7c    00000008     rtsv7M4_T_le_v4SPD16_eabi.lib : _lock.c.obj (.data:$O1$$)
                  20002b84    00000008                                   : memory.c.obj (.data:$O1$$)
                  20002b8c    00000008     BMP388.obj (.data)
                  20002b94    00000008     BMX160.obj (.data)
                  20002b9c    00000008     PWM.obj (.data:selected_Motion)
                  20002ba4    00000004     rtsv7M4_T_le_v4SPD16_eabi.lib : errno.c.obj (.data)
                  20002ba8    00000003     buzzer.obj (.data)
                  20002bab    00000001     PWM.obj (.data)

__llvm_prf_cnts 
*          0    20000000    00000000     UNINITIALIZED

.binit     0    00000000    00000000     

MODULE SUMMARY

       Module                       code    ro data   rw data
       ------                       ----    -------   -------
    .\
       main.obj                     4980    58        1210   
       startup_ccs.obj              12      620       0      
    +--+----------------------------+-------+---------+---------+
       Total:                       4992    678       1210   
                                                             
    .\local_Include\
       i2c.obj                      1191    0         0      
       uart.obj                     184     0         0      
       SysFlag.obj                  172     0         4      
       onBoardSwitch.obj            148     0         0      
       SysTick.obj                  118     0         0      
       led.obj                      52      0         0      
       sysclk.obj                   16      0         0      
    +--+----------------------------+-------+---------+---------+
       Total:                       1881    0         4      
                                                             
    .\local_Include\BMP388\
       BMP388.obj                   6150    8         217    
    +--+----------------------------+-------+---------+---------+
       Total:                       6150    8         217    
                                                             
    .\local_Include\BMX160\
       BMX160.obj                   3287    0         96     
    +--+----------------------------+-------+---------+---------+
       Total:                       3287    0         96     
                                                             
    .\local_Include\BUZZER\
       buzzer.obj                   396     0         13     
    +--+----------------------------+-------+---------+---------+
       Total:                       396     0         13     
                                                             
    .\local_Include\OrangeRX\
       OrangeRX.obj                 1909    0         458    
    +--+----------------------------+-------+---------+---------+
       Total:                       1909    0         458    
                                                             
    .\local_Include\PWM\
       PWM.obj                      3436    32        345    
    +--+----------------------------+-------+---------+---------+
       Total:                       3436    32        345    
                                                             
    .\local_Include\SONAR\
       SONAR.obj                    96      0         0      
    +--+----------------------------+-------+---------+---------+
       Total:                       96      0         0      
                                                             
    .\local_Include\SystemAttitude\
       LPF.obj                      116     0         0      
    +--+----------------------------+-------+---------+---------+
       Total:                       116     0         0      
                                                             
    C:/ti/TivaWare_C_Series-2.2.0.295/driverlib/ccs/Debug/driverlib.lib
       gpio.obj                     846     552       0      
       sysctl.obj                   714     108       0      
       interrupt.obj                156     20        620    
       timer.obj                    290     160       0      
       uart.obj                     112     128       0      
       i2c.obj                      204     0         0      
       pwm.obj                      158     0         0      
       systick.obj                  84      0         0      
    +--+----------------------------+-------+---------+---------+
       Total:                       2564    968       620    
                                                             
    C:\ti\ccs1040\ccs\tools\compiler\ti-cgt-arm_20.2.5.LTS\lib\rtsv7M4_T_le_v4SPD16_eabi.lib
       _printfi.c.obj               4851    0         0      
       e_pow.c.obj                  2512    48        0      
       memory.c.obj                 444     0         8      
       fd_add_t2.asm.obj            438     0         0      
       e_sqrt.c.obj                 344     0         0      
       fd_div_t2.asm.obj            310     0         0      
       s_scalbn.c.obj               272     0         0      
       fd_cmp_t2.asm.obj            268     0         0      
       ctype.c.obj                  0       257       0      
       fd_mul_t2.asm.obj            252     0         0      
       s_floor.c.obj                248     0         0      
       s_round.c.obj                196     0         0      
       s_trunc.c.obj                188     0         0      
       memcpy_t2.asm.obj            156     0         0      
       ull_div_t2.asm.obj           150     0         0      
       memset_t2.asm.obj            122     0         0      
       fd_tos_t2.asm.obj            110     0         0      
       copy_decompress_lzss.c.obj   104     0         0      
       s_frexp.c.obj                100     0         0      
       sprintf.c.obj                98      0         0      
       _ltoa.c.obj                  84      0         0      
       atoi.c.obj                   76      0         0      
       fd_toi_t2.asm.obj            72      0         0      
       autoinit.c.obj               68      0         0      
       u_divt2.asm.obj              64      0         0      
       fs_tod_t2.asm.obj            56      0         0      
       boot_cortex_m.c.obj          52      0         0      
       i_tofd_t2.asm.obj            46      0         0      
       u_tofd_t2.asm.obj            32      0         0      
       memccpy.c.obj                28      0         0      
       s_copysign.c.obj             26      0         0      
       strchr.c.obj                 22      0         0      
       strlen.c.obj                 20      0         0      
       wcslen.c.obj                 18      0         0      
       copy_decompress_none.c.obj   14      0         0      
       copy_zero_init.c.obj         12      0         0      
       errno.c.obj                  8       0         4      
       _lock.c.obj                  2       0         8      
       exit.c.obj                   4       0         0      
       pre_init.c.obj               4       0         0      
       div0.asm.obj                 2       0         0      
    +--+----------------------------+-------+---------+---------+
       Total:                       11873   305       20     
                                                             
       Heap:                        0       0         4096   
       Stack:                       0       0         4096   
       Linker Generated:            0       112       0      
    +--+----------------------------+-------+---------+---------+
       Grand Total:                 36700   2103      11175  


LINKER GENERATED COPY TABLES

__TI_cinit_table @ 000097b0 records: 3, size/record: 8, table size: 24
	.data: load addr=00009758, load size=0000003c bytes, run addr=20002af4, run size=000000b8 bytes, compression=lzss
	.bss: load addr=000097a0, load size=00000008 bytes, run addr=20002270, run size=00000883 bytes, compression=zero_init
	.vtable: load addr=000097a8, load size=00000008 bytes, run addr=20000000, run size=0000026c bytes, compression=zero_init


LINKER GENERATED HANDLER TABLE

__TI_handler_table @ 00009794 records: 3, size/record: 4, table size: 12
	index: 0, handler: __TI_zero_init
	index: 1, handler: __TI_decompress_lzss
	index: 2, handler: __TI_decompress_none


GLOBAL SYMBOLS: SORTED ALPHABETICALLY BY Name 

address   name                               
-------   ----                               
00005c7d  BMP388_Init                        
000088bd  BMP388_Int_Configure               
00007db1  BMP388_Int_Handler                 
20002af2  BMP388_addr                        
00003d99  BMP388_begin                       
000070e1  BMP388_compensate_data             
00003afd  BMP388_compensate_pressure         
00007abd  BMP388_compensate_temperature      
00007191  BMP388_get_calib_data              
000075c9  BMP388_get_regs                    
00006451  BMP388_get_sensor_data             
00003539  BMP388_parse_calib_data            
00007c07  BMP388_parse_sensor_data           
000078e1  BMP388_readAltitude                
00007e79  BMP388_readPressure                
00008881  BMP388_read_all_regs               
000051a1  BMP388_reset                       
0000448d  BMP388_set_config                  
00008eb1  BMP388_set_i2c_addr                
0000723d  BMP388_set_regs                    
00004c45  BMP388_showData                    
00009115  BMP388_user_delay_ms               
00004a69  BMP388_user_i2c_read               
00005ffd  BMP388_user_i2c_write              
0000675d  BMX160_Init                        
00006eb1  BMX160_begin                       
0000753d  BMX160_defaultParamSettg           
0000299d  BMX160_getAllData                  
00008cb5  BMX160_readReg                     
00008d49  BMX160_scan                        
00006d15  BMX160_setMagnConf                 
00002e8d  BMX160_showData                    
00007415  BMX160_softReset                   
000089d5  BMX160_softResetWorker             
00007edd  BMX160_writeBmxReg                 
00008bdd  BUZZ_BUZZ                          
000087cd  BUZZ_BUZZER                        
00006b41  BUZZ_SM                            
000091f3  C$$EXIT                            
20002b6c  Channel_Tune_Variable              
00008c09  GPIODirModeSet                     
00009121  GPIOIntEnable                      
00008ec9  GPIOIntRegister                    
00008121  GPIOIntTypeSet                     
000054c9  GPIOPadConfigSet                   
0000831d  GPIOPinConfigure                   
000091c1  GPIOPinRead                        
00008f41  GPIOPinTypeGPIOInput               
00008e7d  GPIOPinTypeGPIOOutput              
00008f57  GPIOPinTypeI2C                     
00008f6d  GPIOPinTypeI2CSCL                  
00008f83  GPIOPinTypePWM                     
00008f99  GPIOPinTypeTimer                   
00008faf  GPIOPinTypeUART                    
000091c7  GPIOPinWrite                       
000077e1  I2C0_Init                          
0000918f  I2CMasterBusy                      
000091df  I2CMasterControl                   
000091e3  I2CMasterDataGet                   
000091e7  I2CMasterDataPut                   
0000915d  I2CMasterEnable                    
00008fc5  I2CMasterErr                       
000085c5  I2CMasterGlitchFilterConfigSet     
00008369  I2CMasterInitExpClk                
00009197  I2CMasterSlaveAddrSet              
0000578d  I2C_AddressBruteForcer             
00007c75  I2C_ReadByte                       
00008179  I2C_readReg                        
0000655d  I2C_writeSingleReg                 
00007ce1  IntEnable                          
00008a0d  IntRegister                        
00008a41  LED_LEDInit                        
00002025  Motor_ManMixer                     
00004279  Motor_setDuty                      
20002ad4  Oaccel                             
20002ad8  Obmx160                            
20002adc  Ogyro                              
20002ae0  Omagn                              
00003855  OrangeRX_Init                      
00008d8d  OrangeRX_IntHandler                
00004691  OrangeRX_extractData               
000080c5  OrangeRX_isConnected               
00006c31  OrangeRX_receivedChannelReorganizer
00005db1  OrangeRX_showActData               
000082cd  OrangeRX_showStatus                
00008751  PCF8574A_Init                      
0000775d  PCF8574A_Read                      
00007fa5  PCF8574A_Write                     
00008d6b  PWMGenConfigure                    
0000912d  PWMGenEnable                       
0000906d  PWMGenPeriodGet                    
000090c7  PWMGenPeriodSet                    
0000907f  PWMOutputState                     
00008ded  PWMPulseWidthGet                   
00008e0b  PWMPulseWidthSet                   
00004889  PWM_Init                           
000091cd  ResetISR                           
00008005  SONAR_Trigger                      
000083b5  SWITCH_Init                        
00008cdd  SWITCH_SW1_Pressed                 
00008d01  SWITCH_SW2_Pressed                 
00008401  SYSTICK_Delay                      
000090d9  SysClk_Init                        
00006115  SysCtlClockGet                     
00006a4d  SysCtlClockSet                     
000091d3  SysCtlDelay                        
00008ee1  SysCtlPWMClockGet                  
00009009  SysCtlPWMClockSet                  
00008a75  SysCtlPeripheralEnable             
000088f5  SysCtlPeripheralReady              
0000901d  SysCtlResetCauseClear              
00009139  SysCtlResetCauseGet                
0000892d  SysFlag_Check                      
00008aa9  SysFlag_Clear                      
00009145  SysFlag_Init                       
00008add  SysFlag_Set                        
00009031  SysTickEnable                      
00009045  SysTickIntEnable                   
00008e29  SysTickIntRegister                 
000090e9  SysTickPeriodSet                   
00008dad  SysTick_Init                       
00009167  SysTick_IntHandler                 
0000844d  SystemInitialize                   
00008065  TimerConfigure                     
00008fdb  TimerControlEvent                  
000090f9  TimerEnable                        
000091eb  TimerIntClear                      
0000919f  TimerIntEnable                     
00008ef9  TimerIntRegister                   
00009091  TimerLoadSet                       
000090a3  TimerMatchSet                      
00009171  TimerValueGet                      
00007861  UART0_STDIO_Init                   
00008965  UART0_STDIO_IntHandler             
000091d9  UARTClockSourceSet                 
00008c61  UARTEchoSet                        
00008b11  UARTFlushRx                        
00008499  UARTFlushTx                        
000091a7  UARTIntEnable                      
00008f11  UARTIntRegister                    
0000917b  UARTIntStatus                      
00005a0d  UARTStdioConfig                    
00005341  UARTStdioIntHandler                
00008845  UARTgetc                           
00008d25  UARTprintf                         
000031e5  UARTvprintf                        
0000622d  UARTwrite                          
20001270  __STACK_END                        
00001000  __STACK_SIZE                       
20000470  __STACK_TOP                        
00001000  __SYSMEM_SIZE                      
000097b0  __TI_CINIT_Base                    
000097c8  __TI_CINIT_Limit                   
00009794  __TI_Handler_Table_Base            
000097a0  __TI_Handler_Table_Limit           
0000864d  __TI_auto_init_nobinit_nopinit     
00007d49  __TI_decompress_lzss               
00009107  __TI_decompress_none               
00008225  __TI_ltoa                          
ffffffff  __TI_pprof_out_hndl                
0000026d  __TI_printfi                       
ffffffff  __TI_prof_data_size                
ffffffff  __TI_prof_data_start               
00000000  __TI_static_base__                 
00009151  __TI_zero_init                     
00007651  __aeabi_cdcmpeq                    
00007651  __aeabi_cdcmple                    
000076d7  __aeabi_cdrcmple                   
00007b99  __aeabi_d2f                        
0000857d  __aeabi_d2iz                       
00004ff3  __aeabi_dadd                       
00005b45  __aeabi_ddiv                       
00006859  __aeabi_dmul                       
00004fe9  __aeabi_dsub                       
000091b1  __aeabi_errno_addr                 
0000899d  __aeabi_f2d                        
00008bad  __aeabi_i2d                        
00005c7b  __aeabi_idiv0                      
00005c7b  __aeabi_ldiv0                      
0000795d  __aeabi_memclr                     
0000795d  __aeabi_memclr4                    
0000795d  __aeabi_memclr8                    
000072e1  __aeabi_memcpy                     
000072e1  __aeabi_memcpy4                    
000072e1  __aeabi_memcpy8                    
0000795f  __aeabi_memset                     
0000795f  __aeabi_memset4                    
0000795f  __aeabi_memset8                    
00008dcd  __aeabi_ui2d                       
000086d1  __aeabi_uidiv                      
000086d1  __aeabi_uidivmod                   
0000737d  __aeabi_uldivmod                   
ffffffff  __binit__                          
ffffffff  __c_args__                         
00007f41  __error__                          
UNDEFED   __mpu_init                         
20000270  __stack                            
20000000  __start___llvm_prf_cnts            
20000000  __stop___llvm_prf_cnts             
00008b45  _c_int00_noargs                    
000091f8  _ctypes_                           
20002b7c  _lock                              
0000519f  _nop                               
20001270  _sys_memory                        
UNDEFED   _system_post_cinit                 
000091ef  _system_pre_init                   
20002b80  _unlock                            
000091f3  abort                              
20002b94  accelRange                         
0000665d  aligned_alloc                      
000079d9  applyLPF                           
00008531  atoi                               
20002b8c  base_altitude                      
ffffffff  binit                              
20002aec  buzDuration                        
00008e97  copysign                           
00008e97  copysignl                          
20002aee  count                              
20002920  dev                                
20002aa8  dutyOf                             
20002ba4  errno                              
00006955  floor                              
00006955  floorl                             
20002b22  frameGapChNo                       
00007e15  frexp                              
00007e15  frexpl                             
20000000  g_pfnRAMVectors                    
00000000  g_pfnVectors                       
20002ae4  g_uiSysFlags                       
20002b98  gyroRange                          
00008b79  init_Buzzer                        
00006341  ldexp                              
00006341  ldexpl                             
0000168d  main                               
000091b9  malloc                             
0000665d  memalign                           
00008e61  memccpy                            
000072e1  memcpy                             
00007965  memset                             
20002800  mixer                              
20002bab  motorSelect                        
20002af0  pauseTime                          
00000cbd  pow                                
00000cbd  powl                               
20002ae8  resetCause                         
00006ded  round                              
00006ded  roundl                             
20002b23  rx_connection_status               
20002670  rx_data                            
20002a70  rx_text                            
00006341  scalbn                             
00006341  scalbnl                            
20002b9c  selected_Motion                    
00008711  sprintf                            
00005635  sqrt                               
00005635  sqrtl                              
00008ff1  strchr                             
00009059  strlen                             
000096e0  subtract_Motor                     
00006f71  trunc                              
00006f71  truncl                             
000090b5  wcslen                             


GLOBAL SYMBOLS: SORTED BY Symbol Address 

address   name                               
-------   ----                               
00000000  __TI_static_base__                 
00000000  g_pfnVectors                       
0000026d  __TI_printfi                       
00000cbd  pow                                
00000cbd  powl                               
00001000  __STACK_SIZE                       
00001000  __SYSMEM_SIZE                      
0000168d  main                               
00002025  Motor_ManMixer                     
0000299d  BMX160_getAllData                  
00002e8d  BMX160_showData                    
000031e5  UARTvprintf                        
00003539  BMP388_parse_calib_data            
00003855  OrangeRX_Init                      
00003afd  BMP388_compensate_pressure         
00003d99  BMP388_begin                       
00004279  Motor_setDuty                      
0000448d  BMP388_set_config                  
00004691  OrangeRX_extractData               
00004889  PWM_Init                           
00004a69  BMP388_user_i2c_read               
00004c45  BMP388_showData                    
00004fe9  __aeabi_dsub                       
00004ff3  __aeabi_dadd                       
0000519f  _nop                               
000051a1  BMP388_reset                       
00005341  UARTStdioIntHandler                
000054c9  GPIOPadConfigSet                   
00005635  sqrt                               
00005635  sqrtl                              
0000578d  I2C_AddressBruteForcer             
00005a0d  UARTStdioConfig                    
00005b45  __aeabi_ddiv                       
00005c7b  __aeabi_idiv0                      
00005c7b  __aeabi_ldiv0                      
00005c7d  BMP388_Init                        
00005db1  OrangeRX_showActData               
00005ffd  BMP388_user_i2c_write              
00006115  SysCtlClockGet                     
0000622d  UARTwrite                          
00006341  ldexp                              
00006341  ldexpl                             
00006341  scalbn                             
00006341  scalbnl                            
00006451  BMP388_get_sensor_data             
0000655d  I2C_writeSingleReg                 
0000665d  aligned_alloc                      
0000665d  memalign                           
0000675d  BMX160_Init                        
00006859  __aeabi_dmul                       
00006955  floor                              
00006955  floorl                             
00006a4d  SysCtlClockSet                     
00006b41  BUZZ_SM                            
00006c31  OrangeRX_receivedChannelReorganizer
00006d15  BMX160_setMagnConf                 
00006ded  round                              
00006ded  roundl                             
00006eb1  BMX160_begin                       
00006f71  trunc                              
00006f71  truncl                             
000070e1  BMP388_compensate_data             
00007191  BMP388_get_calib_data              
0000723d  BMP388_set_regs                    
000072e1  __aeabi_memcpy                     
000072e1  __aeabi_memcpy4                    
000072e1  __aeabi_memcpy8                    
000072e1  memcpy                             
0000737d  __aeabi_uldivmod                   
00007415  BMX160_softReset                   
0000753d  BMX160_defaultParamSettg           
000075c9  BMP388_get_regs                    
00007651  __aeabi_cdcmpeq                    
00007651  __aeabi_cdcmple                    
000076d7  __aeabi_cdrcmple                   
0000775d  PCF8574A_Read                      
000077e1  I2C0_Init                          
00007861  UART0_STDIO_Init                   
000078e1  BMP388_readAltitude                
0000795d  __aeabi_memclr                     
0000795d  __aeabi_memclr4                    
0000795d  __aeabi_memclr8                    
0000795f  __aeabi_memset                     
0000795f  __aeabi_memset4                    
0000795f  __aeabi_memset8                    
00007965  memset                             
000079d9  applyLPF                           
00007abd  BMP388_compensate_temperature      
00007b99  __aeabi_d2f                        
00007c07  BMP388_parse_sensor_data           
00007c75  I2C_ReadByte                       
00007ce1  IntEnable                          
00007d49  __TI_decompress_lzss               
00007db1  BMP388_Int_Handler                 
00007e15  frexp                              
00007e15  frexpl                             
00007e79  BMP388_readPressure                
00007edd  BMX160_writeBmxReg                 
00007f41  __error__                          
00007fa5  PCF8574A_Write                     
00008005  SONAR_Trigger                      
00008065  TimerConfigure                     
000080c5  OrangeRX_isConnected               
00008121  GPIOIntTypeSet                     
00008179  I2C_readReg                        
00008225  __TI_ltoa                          
000082cd  OrangeRX_showStatus                
0000831d  GPIOPinConfigure                   
00008369  I2CMasterInitExpClk                
000083b5  SWITCH_Init                        
00008401  SYSTICK_Delay                      
0000844d  SystemInitialize                   
00008499  UARTFlushTx                        
00008531  atoi                               
0000857d  __aeabi_d2iz                       
000085c5  I2CMasterGlitchFilterConfigSet     
0000864d  __TI_auto_init_nobinit_nopinit     
000086d1  __aeabi_uidiv                      
000086d1  __aeabi_uidivmod                   
00008711  sprintf                            
00008751  PCF8574A_Init                      
000087cd  BUZZ_BUZZER                        
00008845  UARTgetc                           
00008881  BMP388_read_all_regs               
000088bd  BMP388_Int_Configure               
000088f5  SysCtlPeripheralReady              
0000892d  SysFlag_Check                      
00008965  UART0_STDIO_IntHandler             
0000899d  __aeabi_f2d                        
000089d5  BMX160_softResetWorker             
00008a0d  IntRegister                        
00008a41  LED_LEDInit                        
00008a75  SysCtlPeripheralEnable             
00008aa9  SysFlag_Clear                      
00008add  SysFlag_Set                        
00008b11  UARTFlushRx                        
00008b45  _c_int00_noargs                    
00008b79  init_Buzzer                        
00008bad  __aeabi_i2d                        
00008bdd  BUZZ_BUZZ                          
00008c09  GPIODirModeSet                     
00008c61  UARTEchoSet                        
00008cb5  BMX160_readReg                     
00008cdd  SWITCH_SW1_Pressed                 
00008d01  SWITCH_SW2_Pressed                 
00008d25  UARTprintf                         
00008d49  BMX160_scan                        
00008d6b  PWMGenConfigure                    
00008d8d  OrangeRX_IntHandler                
00008dad  SysTick_Init                       
00008dcd  __aeabi_ui2d                       
00008ded  PWMPulseWidthGet                   
00008e0b  PWMPulseWidthSet                   
00008e29  SysTickIntRegister                 
00008e61  memccpy                            
00008e7d  GPIOPinTypeGPIOOutput              
00008e97  copysign                           
00008e97  copysignl                          
00008eb1  BMP388_set_i2c_addr                
00008ec9  GPIOIntRegister                    
00008ee1  SysCtlPWMClockGet                  
00008ef9  TimerIntRegister                   
00008f11  UARTIntRegister                    
00008f41  GPIOPinTypeGPIOInput               
00008f57  GPIOPinTypeI2C                     
00008f6d  GPIOPinTypeI2CSCL                  
00008f83  GPIOPinTypePWM                     
00008f99  GPIOPinTypeTimer                   
00008faf  GPIOPinTypeUART                    
00008fc5  I2CMasterErr                       
00008fdb  TimerControlEvent                  
00008ff1  strchr                             
00009009  SysCtlPWMClockSet                  
0000901d  SysCtlResetCauseClear              
00009031  SysTickEnable                      
00009045  SysTickIntEnable                   
00009059  strlen                             
0000906d  PWMGenPeriodGet                    
0000907f  PWMOutputState                     
00009091  TimerLoadSet                       
000090a3  TimerMatchSet                      
000090b5  wcslen                             
000090c7  PWMGenPeriodSet                    
000090d9  SysClk_Init                        
000090e9  SysTickPeriodSet                   
000090f9  TimerEnable                        
00009107  __TI_decompress_none               
00009115  BMP388_user_delay_ms               
00009121  GPIOIntEnable                      
0000912d  PWMGenEnable                       
00009139  SysCtlResetCauseGet                
00009145  SysFlag_Init                       
00009151  __TI_zero_init                     
0000915d  I2CMasterEnable                    
00009167  SysTick_IntHandler                 
00009171  TimerValueGet                      
0000917b  UARTIntStatus                      
0000918f  I2CMasterBusy                      
00009197  I2CMasterSlaveAddrSet              
0000919f  TimerIntEnable                     
000091a7  UARTIntEnable                      
000091b1  __aeabi_errno_addr                 
000091b9  malloc                             
000091c1  GPIOPinRead                        
000091c7  GPIOPinWrite                       
000091cd  ResetISR                           
000091d3  SysCtlDelay                        
000091d9  UARTClockSourceSet                 
000091df  I2CMasterControl                   
000091e3  I2CMasterDataGet                   
000091e7  I2CMasterDataPut                   
000091eb  TimerIntClear                      
000091ef  _system_pre_init                   
000091f3  C$$EXIT                            
000091f3  abort                              
000091f8  _ctypes_                           
000096e0  subtract_Motor                     
00009794  __TI_Handler_Table_Base            
000097a0  __TI_Handler_Table_Limit           
000097b0  __TI_CINIT_Base                    
000097c8  __TI_CINIT_Limit                   
20000000  __start___llvm_prf_cnts            
20000000  __stop___llvm_prf_cnts             
20000000  g_pfnRAMVectors                    
20000270  __stack                            
20000470  __STACK_TOP                        
20001270  __STACK_END                        
20001270  _sys_memory                        
20002670  rx_data                            
20002800  mixer                              
20002920  dev                                
20002a70  rx_text                            
20002aa8  dutyOf                             
20002ad4  Oaccel                             
20002ad8  Obmx160                            
20002adc  Ogyro                              
20002ae0  Omagn                              
20002ae4  g_uiSysFlags                       
20002ae8  resetCause                         
20002aec  buzDuration                        
20002aee  count                              
20002af0  pauseTime                          
20002af2  BMP388_addr                        
20002b22  frameGapChNo                       
20002b23  rx_connection_status               
20002b6c  Channel_Tune_Variable              
20002b7c  _lock                              
20002b80  _unlock                            
20002b8c  base_altitude                      
20002b94  accelRange                         
20002b98  gyroRange                          
20002b9c  selected_Motion                    
20002ba4  errno                              
20002bab  motorSelect                        
ffffffff  __TI_pprof_out_hndl                
ffffffff  __TI_prof_data_size                
ffffffff  __TI_prof_data_start               
ffffffff  __binit__                          
ffffffff  __c_args__                         
ffffffff  binit                              
UNDEFED   __mpu_init                         
UNDEFED   _system_post_cinit                 

[262 symbols]
