******************************************************************************
                  TI ARM Linker PC v20.2.5                     
******************************************************************************
>> Linked Wed Feb  9 17:00:29 2022

OUTPUT FILE NAME:   <DroneProject.out>
ENTRY POINT SYMBOL: "_c_int00_noargs"  address: 00003485


MEMORY CONFIGURATION

         name            origin    length      used     unused   attr    fill
----------------------  --------  ---------  --------  --------  ----  --------
  FLASH                 00000000   00040000  00003cc4  0003c33c  R  X
  SRAM                  20000000   00008000  00002816  000057ea  RW X


SEGMENT ALLOCATION MAP

run origin  load origin   length   init length attrs members
----------  ----------- ---------- ----------- ----- -------
00000000    00000000    00003cc8   00003cc8    r-x
  00000000    00000000    0000026c   0000026c    r-- .intvecs
  0000026c    0000026c    000036ac   000036ac    r-x .text
  00003918    00003918    00000364   00000364    r-- .const
  00003c80    00003c80    00000048   00000048    r-- .cinit
20000000    20000000    0000281b   00000000    rw-
  20000000    20000000    0000026c   00000000    rw- .vtable
  20000270    20000270    00001000   00000000    rw- .stack
  20001270    20001270    00001000   00000000    rw- .sysmem
  20002270    20002270    0000057b   00000000    rw- .bss
  200027ec    200027ec    0000002f   00000000    rw- .data


SECTION ALLOCATION MAP

 output                                  attributes/
section   page    origin      length       input sections
--------  ----  ----------  ----------   ----------------
.intvecs   0    00000000    0000026c     
                  00000000    0000026c     startup_ccs.obj (.intvecs)

.text      0    0000026c    000036ac     
                  0000026c    00000354     main.obj (.text:UARTvprintf)
                  000005c0    00000348     main.obj (.text:main)
                  00000908    0000031c     BMP388.obj (.text:BMP388_parse_calib_data)
                  00000c24    00000270     BMP388.obj (.text:BMP388_begin)
                  00000e94    00000201     BMP388.obj (.text:BMP388_set_config)
                  00001095    00000001     --HOLE-- [fill = 0]
                  00001096    00000002     startup_ccs.obj (.text:FaultISR)
                  00001098    000001dc     BMP388.obj (.text:BMP388_user_i2c_read)
                  00001274    000001a0     BMP388.obj (.text:BMP388_reset)
                  00001414    00000188     main.obj (.text:UARTStdioIntHandler)
                  0000159c    0000016c     driverlib.lib : gpio.obj (.text:GPIOPadConfigSet)
                  00001708    00000138     main.obj (.text:UARTStdioConfig)
                  00001840    00000136     rtsv7M4_T_le_v4SPD16_eabi.lib : fd_div_t2.asm.obj (.text)
                  00001976    00000002     startup_ccs.obj (.text:IntDefaultHandler)
                  00001978    0000012b     i2c.obj (.text:I2C_AddressBruteForcer)
                  00001aa3    00000001     --HOLE-- [fill = 0]
                  00001aa4    00000118     BMP388.obj (.text:BMP388_user_i2c_write)
                  00001bbc    00000118     driverlib.lib : sysctl.obj (.text:SysCtlClockGet)
                  00001cd4    00000114     main.obj (.text:UARTwrite)
                  00001de8    00000100     i2c.obj (.text:I2C_writeSingleReg)
                  00001ee8    00000100     rtsv7M4_T_le_v4SPD16_eabi.lib : memory.c.obj (.text:aligned_alloc)
                  00001fe8    000000fc     BMX160.obj (.text:BMX160_Init)
                  000020e4    000000f4     driverlib.lib : sysctl.obj (.text:SysCtlClockSet)
                  000021d8    000000f0     buzzer.obj (.text:BUZZ_SM)
                  000022c8    000000c6     BMX160.obj (.text:BMX160_setMagnConf)
                  0000238e    00000002     startup_ccs.obj (.text:NmiSR)
                  00002390    000000be     BMX160.obj (.text:BMX160_begin)
                  0000244e    00000002     rtsv7M4_T_le_v4SPD16_eabi.lib : _lock.c.obj (.text:_nop)
                  00002450    000000ab     BMP388.obj (.text:BMP388_get_calib_data)
                  000024fb    00000001     --HOLE-- [fill = 0]
                  000024fc    000000a4     BMP388.obj (.text:BMP388_set_regs)
                  000025a0    0000009c     rtsv7M4_T_le_v4SPD16_eabi.lib : memcpy_t2.asm.obj (.text)
                  0000263c    00000094     BMP388.obj (.text:BMP388_Init)
                  000026d0    00000094     BMX160.obj (.text:BMX160_softReset)
                  00002764    00000094     main.obj (.text:UARTPrimeTransmit)
                  000027f8    00000088     BMP388.obj (.text:BMP388_get_regs)
                  00002880    00000084     i2c.obj (.text:PCF8574A_Read)
                  00002904    00000080     uart.obj (.text:UART0_STDIO_Init)
                  00002984    0000007a     rtsv7M4_T_le_v4SPD16_eabi.lib : memset_t2.asm.obj (.text)
                  000029fe    00000002                                   : div0.asm.obj (.text)
                  00002a00    00000078     i2c.obj (.text:I2C0_Init)
                  00002a78    00000070     rtsv7M4_T_le_v4SPD16_eabi.lib : memory.c.obj (.text:split)
                  00002ae8    0000006c     i2c.obj (.text:I2C_ReadByte)
                  00002b54    00000068     driverlib.lib : interrupt.obj (.text:IntEnable)
                  00002bbc    00000068     rtsv7M4_T_le_v4SPD16_eabi.lib : copy_decompress_lzss.c.obj (.text:decompress:lzss:__TI_decompress_lzss)
                  00002c24    00000063     BMX160.obj (.text:BMX160_writeBmxReg)
                  00002c87    00000001     --HOLE-- [fill = 0]
                  00002c88    00000061     main.obj (.text:__error__)
                  00002ce9    00000003     --HOLE-- [fill = 0]
                  00002cec    00000060     i2c.obj (.text:PCF8574A_Write)
                  00002d4c    00000058     driverlib.lib : gpio.obj (.text:GPIOIntTypeSet)
                  00002da4    00000052     BMX160.obj (.text:BMX160_defaultParamSettg)
                  00002df6    00000002     --HOLE-- [fill = 0]
                  00002df8    0000004c     driverlib.lib : gpio.obj (.text:GPIOPinConfigure)
                  00002e44    0000004c                   : i2c.obj (.text:I2CMasterInitExpClk)
                  00002e90    0000004c     onBoardSwitch.obj (.text:SWITCH_Init)
                  00002edc    0000004c     SysTick.obj (.text:SYSTICK_Delay)
                  00002f28    0000004c     main.obj (.text:UARTFlushTx)
                  00002f74    00000044     main.obj (.text:SystemInitialize)
                  00002fb8    00000044     driverlib.lib : gpio.obj (.text:_GPIOIntNumberGet)
                  00002ffc    00000044     rtsv7M4_T_le_v4SPD16_eabi.lib : autoinit.c.obj (.text:__TI_auto_init_nobinit_nopinit:__TI_auto_init_nobinit_nopinit)
                  00003040    00000042     BMX160.obj (.text:BMX160_wakeUp)
                  00003082    00000002     --HOLE-- [fill = 0]
                  00003084    00000040     driverlib.lib : uart.obj (.text:_UARTIntNumberGet)
                  000030c4    00000040     rtsv7M4_T_le_v4SPD16_eabi.lib : u_divt2.asm.obj (.text)
                  00003104    0000003e     i2c.obj (.text:PCF8574A_Init)
                  00003142    00000002     --HOLE-- [fill = 0]
                  00003144    0000003c     buzzer.obj (.text:BUZZ_BUZZER)
                  00003180    0000003c     main.obj (.text:IsBufferFull)
                  000031bc    0000003c     main.obj (.text:UARTgetc)
                  000031f8    0000003a     BMP388.obj (.text:BMP388_read_all_regs)
                  00003232    00000002     --HOLE-- [fill = 0]
                  00003234    00000038     BMP388.obj (.text:BMP388_Int_Configure)
                  0000326c    00000038     driverlib.lib : sysctl.obj (.text:SysCtlPeripheralReady)
                  000032a4    00000038     SysFlag.obj (.text:SysFlag_Check)
                  000032dc    00000038     uart.obj (.text:UART0_STDIO_IntHandler)
                  00003314    00000036     BMX160.obj (.text:BMX160_softResetWorker)
                  0000334a    00000002     --HOLE-- [fill = 0]
                  0000334c    00000034     driverlib.lib : interrupt.obj (.text:IntRegister)
                  00003380    00000034     led.obj (.text:LED_LEDInit)
                  000033b4    00000034     driverlib.lib : sysctl.obj (.text:SysCtlPeripheralEnable)
                  000033e8    00000034     SysFlag.obj (.text:SysFlag_Clear)
                  0000341c    00000034     SysFlag.obj (.text:SysFlag_Set)
                  00003450    00000034     main.obj (.text:UARTFlushRx)
                  00003484    00000034     rtsv7M4_T_le_v4SPD16_eabi.lib : boot_cortex_m.c.obj (.text:_c_int00_noargs:_c_int00_noargs)
                  000034b8    00000034     buzzer.obj (.text:init_Buzzer)
                  000034ec    0000002e     BMP388.obj (.text:BMP388_Int_Handler)
                  0000351a    0000002e     rtsv7M4_T_le_v4SPD16_eabi.lib : i_tofd_t2.asm.obj (.text)
                  00003548    0000002c     buzzer.obj (.text:BUZZ_BUZZ)
                  00003574    0000002c     driverlib.lib : gpio.obj (.text:GPIODirModeSet)
                  000035a0    0000002c     main.obj (.text:IsBufferEmpty)
                  000035cc    0000002c     main.obj (.text:UARTEchoSet)
                  000035f8    00000028     rtsv7M4_T_le_v4SPD16_eabi.lib : memory.c.obj (.text:free_list_insert)
                  00003620    00000026     BMX160.obj (.text:BMX160_scan)
                  00003646    00000002     --HOLE-- [fill = 0]
                  00003648    00000024     onBoardSwitch.obj (.text:SWITCH_SW1_Pressed)
                  0000366c    00000024     onBoardSwitch.obj (.text:SWITCH_SW2_Pressed)
                  00003690    00000024     main.obj (.text:UARTprintf)
                  000036b4    00000020     SysTick.obj (.text:SysTick_Init)
                  000036d4    00000020     rtsv7M4_T_le_v4SPD16_eabi.lib : u_tofd_t2.asm.obj (.text)
                  000036f4    0000001c     driverlib.lib : systick.obj (.text:SysTickIntRegister)
                  00003710    0000001c     rtsv7M4_T_le_v4SPD16_eabi.lib : memory.c.obj (.text:free_list_remove)
                  0000372c    0000001a     driverlib.lib : gpio.obj (.text:GPIOPinTypeGPIOOutput)
                  00003746    00000002     --HOLE-- [fill = 0]
                  00003748    00000018     BMP388.obj (.text:BMP388_set_i2c_addr)
                  00003760    00000018     driverlib.lib : gpio.obj (.text:GPIOIntRegister)
                  00003778    00000018                   : uart.obj (.text:UARTIntRegister)
                  00003790    00000016                   : gpio.obj (.text:GPIOPinTypeGPIOInput)
                  000037a6    00000016                   : gpio.obj (.text:GPIOPinTypeI2C)
                  000037bc    00000016                   : gpio.obj (.text:GPIOPinTypeI2CSCL)
                  000037d2    00000016                   : gpio.obj (.text:GPIOPinTypeUART)
                  000037e8    00000016                   : i2c.obj (.text:I2CMasterErr)
                  000037fe    00000002     --HOLE-- [fill = 0]
                  00003800    00000014                   : sysctl.obj (.text:SysCtlResetCauseClear)
                  00003814    00000014                   : systick.obj (.text:SysTickEnable)
                  00003828    00000014                   : systick.obj (.text:SysTickIntEnable)
                  0000383c    00000010     sysclk.obj (.text:SysClk_Init)
                  0000384c    00000010     driverlib.lib : systick.obj (.text:SysTickPeriodSet)
                  0000385c    0000000e     rtsv7M4_T_le_v4SPD16_eabi.lib : copy_decompress_none.c.obj (.text:decompress:none:__TI_decompress_none)
                  0000386a    0000000c     BMP388.obj (.text:BMP388_user_delay_ms)
                  00003876    0000000c     driverlib.lib : gpio.obj (.text:GPIOIntEnable)
                  00003882    00000002     --HOLE-- [fill = 0]
                  00003884    0000000c                   : sysctl.obj (.text:SysCtlResetCauseGet)
                  00003890    0000000c     SysFlag.obj (.text:SysFlag_Init)
                  0000389c    0000000c     rtsv7M4_T_le_v4SPD16_eabi.lib : copy_zero_init.c.obj (.text:decompress:ZI:__TI_zero_init)
                  000038a8    0000000a     driverlib.lib : i2c.obj (.text:I2CMasterEnable)
                  000038b2    0000000a     SysTick.obj (.text:SysTick_IntHandler)
                  000038bc    0000000a     driverlib.lib : uart.obj (.text:UARTIntStatus)
                  000038c6    00000008                   : i2c.obj (.text:I2CMasterBusy)
                  000038ce    00000008                   : i2c.obj (.text:I2CMasterSlaveAddrSet)
                  000038d6    00000008                   : uart.obj (.text:UARTIntEnable)
                  000038de    00000008     rtsv7M4_T_le_v4SPD16_eabi.lib : memory.c.obj (.text:malloc)
                  000038e6    00000006     driverlib.lib : gpio.obj (.text:GPIOPinRead)
                  000038ec    00000006                   : gpio.obj (.text:GPIOPinWrite)
                  000038f2    00000006     startup_ccs.obj (.text:ResetISR)
                  000038f8    00000006     driverlib.lib : sysctl.obj (.text:SysCtlDelay)
                  000038fe    00000006                   : uart.obj (.text:UARTClockSourceSet)
                  00003904    00000004                   : i2c.obj (.text:I2CMasterControl)
                  00003908    00000004                   : i2c.obj (.text:I2CMasterDataGet)
                  0000390c    00000004                   : i2c.obj (.text:I2CMasterDataPut)
                  00003910    00000004     rtsv7M4_T_le_v4SPD16_eabi.lib : pre_init.c.obj (.text:_system_pre_init)
                  00003914    00000004                                   : exit.c.obj (.text:abort:abort)

.const     0    00003918    00000364     
                  00003918    000000d8     driverlib.lib : gpio.obj (.const:g_ppui32GPIOIntMapSnowflake)
                  000039f0    000000c0                   : gpio.obj (.const:g_ppui32GPIOIntMapBlizzard)
                  00003ab0    00000090                   : gpio.obj (.const:g_pui32GPIOBaseAddrs)
                  00003b40    0000006c                   : sysctl.obj (.const:g_pui32Xtals)
                  00003bac    00000040                   : uart.obj (.const:g_ppui32UARTIntMap)
                  00003bec    00000040                   : uart.obj (.const:g_ppui32UARTIntMapSnowflake)
                  00003c2c    00000014                   : interrupt.obj (.const:g_pui32EnRegs)
                  00003c40    00000012     main.obj (.const:.string)
                  00003c52    00000002     --HOLE-- [fill = 0]
                  00003c54    0000000c     main.obj (.const:g_ui32UARTBase)
                  00003c60    0000000c     main.obj (.const:g_ui32UARTInt)
                  00003c6c    0000000c     main.obj (.const:g_ui32UARTPeriph)
                  00003c78    00000004     main.obj (.const)

.cinit     0    00003c80    00000048     
                  00003c80    00000012     (.cinit..data.load) [load image, compression = lzss]
                  00003c92    00000002     --HOLE-- [fill = 0]
                  00003c94    0000000c     (__TI_handler_table)
                  00003ca0    00000008     (.cinit..bss.load) [load image, compression = zero_init]
                  00003ca8    00000008     (.cinit..vtable.load) [load image, compression = zero_init]
                  00003cb0    00000018     (__TI_cinit_table)

.init_array 
*          0    00000000    00000000     UNINITIALIZED

.vtable    0    20000000    0000026c     UNINITIALIZED
                  20000000    0000026c     driverlib.lib : interrupt.obj (.vtable)

.stack     0    20000270    00001000     UNINITIALIZED
                  20000270    00000004     rtsv7M4_T_le_v4SPD16_eabi.lib : boot_cortex_m.c.obj (.stack)
                  20000274    00000ffc     --HOLE--

.sysmem    0    20001270    00001000     UNINITIALIZED
                  20001270    00000010     rtsv7M4_T_le_v4SPD16_eabi.lib : memory.c.obj (.sysmem)
                  20001280    00000ff0     --HOLE--

.bss       0    20002270    0000057b     UNINITIALIZED
                  20002270    00000400     main.obj (.bss:g_pcUARTTxBuffer)
                  20002670    000000d0     (.common:dev)
                  20002740    00000080     main.obj (.bss:g_pcUARTRxBuffer)
                  200027c0    00000008     main.obj (.bss)
                  200027c8    00000004     buzzer.obj (.bss)
                  200027cc    00000004     (.common:Oaccel)
                  200027d0    00000004     (.common:Obmx160)
                  200027d4    00000004     (.common:Ogyro)
                  200027d8    00000004     (.common:Omagn)
                  200027dc    00000004     (.common:g_uiSysFlags)
                  200027e0    00000004     (.common:resetCause)
                  200027e4    00000002     (.common:buzDuration)
                  200027e6    00000002     (.common:count)
                  200027e8    00000002     (.common:pauseTime)
                  200027ea    00000001     (.common:BMP388_addr)

.data      0    200027ec    0000002f     UNINITIALIZED
                  200027ec    0000001c     main.obj (.data)
                  20002808    00000008     rtsv7M4_T_le_v4SPD16_eabi.lib : _lock.c.obj (.data:$O1$$)
                  20002810    00000008                                   : memory.c.obj (.data:$O1$$)
                  20002818    00000003     buzzer.obj (.data)

__llvm_prf_cnts 
*          0    20000000    00000000     UNINITIALIZED

.binit     0    00000000    00000000     

MODULE SUMMARY

       Module                       code    ro data   rw data
       ------                       ----    -------   -------
    .\
       main.obj                     3357    58        1192   
       startup_ccs.obj              12      620       0      
    +--+----------------------------+-------+---------+---------+
       Total:                       3369    678       1192   
                                                             
    .\local_Include\
       i2c.obj                      1073    0         0      
       uart.obj                     184     0         0      
       SysFlag.obj                  172     0         4      
       onBoardSwitch.obj            148     0         0      
       SysTick.obj                  118     0         0      
       led.obj                      52      0         0      
       sysclk.obj                   16      0         0      
    +--+----------------------------+-------+---------+---------+
       Total:                       1763    0         4      
                                                             
    .\local_Include\BMP388\
       BMP388.obj                   3920    0         209    
    +--+----------------------------+-------+---------+---------+
       Total:                       3920    0         209    
                                                             
    .\local_Include\BMX160\
       BMX160.obj                   1127    0         16     
    +--+----------------------------+-------+---------+---------+
       Total:                       1127    0         16     
                                                             
    .\local_Include\BUZZER\
       buzzer.obj                   396     0         13     
    +--+----------------------------+-------+---------+---------+
       Total:                       396     0         13     
                                                             
    C:/ti/TivaWare_C_Series-2.2.0.295/driverlib/ccs/Debug/driverlib.lib
       gpio.obj                     802     552       0      
       interrupt.obj                156     20        620    
       sysctl.obj                   670     108       0      
       uart.obj                     112     128       0      
       i2c.obj                      136     0         0      
       systick.obj                  84      0         0      
    +--+----------------------------+-------+---------+---------+
       Total:                       1960    808       620    
                                                             
    C:\ti\ccs1040\ccs\tools\compiler\ti-cgt-arm_20.2.5.LTS\lib\rtsv7M4_T_le_v4SPD16_eabi.lib
       memory.c.obj                 444     0         8      
       fd_div_t2.asm.obj            310     0         0      
       memcpy_t2.asm.obj            156     0         0      
       memset_t2.asm.obj            122     0         0      
       copy_decompress_lzss.c.obj   104     0         0      
       autoinit.c.obj               68      0         0      
       u_divt2.asm.obj              64      0         0      
       boot_cortex_m.c.obj          52      0         0      
       i_tofd_t2.asm.obj            46      0         0      
       u_tofd_t2.asm.obj            32      0         0      
       copy_decompress_none.c.obj   14      0         0      
       copy_zero_init.c.obj         12      0         0      
       _lock.c.obj                  2       0         8      
       exit.c.obj                   4       0         0      
       pre_init.c.obj               4       0         0      
       div0.asm.obj                 2       0         0      
    +--+----------------------------+-------+---------+---------+
       Total:                       1436    0         16     
                                                             
       Heap:                        0       0         4096   
       Stack:                       0       0         4096   
       Linker Generated:            0       70        0      
    +--+----------------------------+-------+---------+---------+
       Grand Total:                 13971   1556      10262  


LINKER GENERATED COPY TABLES

__TI_cinit_table @ 00003cb0 records: 3, size/record: 8, table size: 24
	.data: load addr=00003c80, load size=00000012 bytes, run addr=200027ec, run size=0000002f bytes, compression=lzss
	.bss: load addr=00003ca0, load size=00000008 bytes, run addr=20002270, run size=0000057b bytes, compression=zero_init
	.vtable: load addr=00003ca8, load size=00000008 bytes, run addr=20000000, run size=0000026c bytes, compression=zero_init


LINKER GENERATED HANDLER TABLE

__TI_handler_table @ 00003c94 records: 3, size/record: 4, table size: 12
	index: 0, handler: __TI_zero_init
	index: 1, handler: __TI_decompress_lzss
	index: 2, handler: __TI_decompress_none


GLOBAL SYMBOLS: SORTED ALPHABETICALLY BY Name 

address   name                          
-------   ----                          
0000263d  BMP388_Init                   
00003235  BMP388_Int_Configure          
000034ed  BMP388_Int_Handler            
200027ea  BMP388_addr                   
00000c25  BMP388_begin                  
00002451  BMP388_get_calib_data         
000027f9  BMP388_get_regs               
00000909  BMP388_parse_calib_data       
000031f9  BMP388_read_all_regs          
00001275  BMP388_reset                  
00000e95  BMP388_set_config             
00003749  BMP388_set_i2c_addr           
000024fd  BMP388_set_regs               
0000386b  BMP388_user_delay_ms          
00001099  BMP388_user_i2c_read          
00001aa5  BMP388_user_i2c_write         
00001fe9  BMX160_Init                   
00002391  BMX160_begin                  
00002da5  BMX160_defaultParamSettg      
00003621  BMX160_scan                   
000022c9  BMX160_setMagnConf            
000026d1  BMX160_softReset              
00003315  BMX160_softResetWorker        
00003041  BMX160_wakeUp                 
00002c25  BMX160_writeBmxReg            
00003549  BUZZ_BUZZ                     
00003145  BUZZ_BUZZER                   
000021d9  BUZZ_SM                       
00003915  C$$EXIT                       
00003575  GPIODirModeSet                
00003877  GPIOIntEnable                 
00003761  GPIOIntRegister               
00002d4d  GPIOIntTypeSet                
0000159d  GPIOPadConfigSet              
00002df9  GPIOPinConfigure              
000038e7  GPIOPinRead                   
00003791  GPIOPinTypeGPIOInput          
0000372d  GPIOPinTypeGPIOOutput         
000037a7  GPIOPinTypeI2C                
000037bd  GPIOPinTypeI2CSCL             
000037d3  GPIOPinTypeUART               
000038ed  GPIOPinWrite                  
00002a01  I2C0_Init                     
000038c7  I2CMasterBusy                 
00003905  I2CMasterControl              
00003909  I2CMasterDataGet              
0000390d  I2CMasterDataPut              
000038a9  I2CMasterEnable               
000037e9  I2CMasterErr                  
00002e45  I2CMasterInitExpClk           
000038cf  I2CMasterSlaveAddrSet         
00001979  I2C_AddressBruteForcer        
00002ae9  I2C_ReadByte                  
00001de9  I2C_writeSingleReg            
00002b55  IntEnable                     
0000334d  IntRegister                   
00003381  LED_LEDInit                   
200027cc  Oaccel                        
200027d0  Obmx160                       
200027d4  Ogyro                         
200027d8  Omagn                         
00003105  PCF8574A_Init                 
00002881  PCF8574A_Read                 
00002ced  PCF8574A_Write                
000038f3  ResetISR                      
00002e91  SWITCH_Init                   
00003649  SWITCH_SW1_Pressed            
0000366d  SWITCH_SW2_Pressed            
00002edd  SYSTICK_Delay                 
0000383d  SysClk_Init                   
00001bbd  SysCtlClockGet                
000020e5  SysCtlClockSet                
000038f9  SysCtlDelay                   
000033b5  SysCtlPeripheralEnable        
0000326d  SysCtlPeripheralReady         
00003801  SysCtlResetCauseClear         
00003885  SysCtlResetCauseGet           
000032a5  SysFlag_Check                 
000033e9  SysFlag_Clear                 
00003891  SysFlag_Init                  
0000341d  SysFlag_Set                   
00003815  SysTickEnable                 
00003829  SysTickIntEnable              
000036f5  SysTickIntRegister            
0000384d  SysTickPeriodSet              
000036b5  SysTick_Init                  
000038b3  SysTick_IntHandler            
00002f75  SystemInitialize              
00002905  UART0_STDIO_Init              
000032dd  UART0_STDIO_IntHandler        
000038ff  UARTClockSourceSet            
000035cd  UARTEchoSet                   
00003451  UARTFlushRx                   
00002f29  UARTFlushTx                   
000038d7  UARTIntEnable                 
00003779  UARTIntRegister               
000038bd  UARTIntStatus                 
00001709  UARTStdioConfig               
00001415  UARTStdioIntHandler           
000031bd  UARTgetc                      
00003691  UARTprintf                    
0000026d  UARTvprintf                   
00001cd5  UARTwrite                     
20001270  __STACK_END                   
00001000  __STACK_SIZE                  
20000470  __STACK_TOP                   
00001000  __SYSMEM_SIZE                 
00003cb0  __TI_CINIT_Base               
00003cc8  __TI_CINIT_Limit              
00003c94  __TI_Handler_Table_Base       
00003ca0  __TI_Handler_Table_Limit      
00002ffd  __TI_auto_init_nobinit_nopinit
00002bbd  __TI_decompress_lzss          
0000385d  __TI_decompress_none          
ffffffff  __TI_pprof_out_hndl           
ffffffff  __TI_prof_data_size           
ffffffff  __TI_prof_data_start          
00000000  __TI_static_base__            
0000389d  __TI_zero_init                
00001841  __aeabi_ddiv                  
0000351b  __aeabi_i2d                   
000029ff  __aeabi_idiv0                 
000029ff  __aeabi_ldiv0                 
00002985  __aeabi_memclr                
00002985  __aeabi_memclr4               
00002985  __aeabi_memclr8               
000025a1  __aeabi_memcpy                
000025a1  __aeabi_memcpy4               
000025a1  __aeabi_memcpy8               
00002987  __aeabi_memset                
00002987  __aeabi_memset4               
00002987  __aeabi_memset8               
000036d5  __aeabi_ui2d                  
000030c5  __aeabi_uidiv                 
000030c5  __aeabi_uidivmod              
ffffffff  __binit__                     
ffffffff  __c_args__                    
00002c89  __error__                     
UNDEFED   __mpu_init                    
20000270  __stack                       
20000000  __start___llvm_prf_cnts       
20000000  __stop___llvm_prf_cnts        
00003485  _c_int00_noargs               
20002808  _lock                         
0000244f  _nop                          
20001270  _sys_memory                   
UNDEFED   _system_post_cinit            
00003911  _system_pre_init              
2000280c  _unlock                       
00003915  abort                         
00001ee9  aligned_alloc                 
ffffffff  binit                         
200027e4  buzDuration                   
200027e6  count                         
20002670  dev                           
20000000  g_pfnRAMVectors               
00000000  g_pfnVectors                  
200027dc  g_uiSysFlags                  
000034b9  init_Buzzer                   
000005c1  main                          
000038df  malloc                        
00001ee9  memalign                      
000025a1  memcpy                        
0000298d  memset                        
200027e8  pauseTime                     
200027e0  resetCause                    


GLOBAL SYMBOLS: SORTED BY Symbol Address 

address   name                          
-------   ----                          
00000000  __TI_static_base__            
00000000  g_pfnVectors                  
0000026d  UARTvprintf                   
000005c1  main                          
00000909  BMP388_parse_calib_data       
00000c25  BMP388_begin                  
00000e95  BMP388_set_config             
00001000  __STACK_SIZE                  
00001000  __SYSMEM_SIZE                 
00001099  BMP388_user_i2c_read          
00001275  BMP388_reset                  
00001415  UARTStdioIntHandler           
0000159d  GPIOPadConfigSet              
00001709  UARTStdioConfig               
00001841  __aeabi_ddiv                  
00001979  I2C_AddressBruteForcer        
00001aa5  BMP388_user_i2c_write         
00001bbd  SysCtlClockGet                
00001cd5  UARTwrite                     
00001de9  I2C_writeSingleReg            
00001ee9  aligned_alloc                 
00001ee9  memalign                      
00001fe9  BMX160_Init                   
000020e5  SysCtlClockSet                
000021d9  BUZZ_SM                       
000022c9  BMX160_setMagnConf            
00002391  BMX160_begin                  
0000244f  _nop                          
00002451  BMP388_get_calib_data         
000024fd  BMP388_set_regs               
000025a1  __aeabi_memcpy                
000025a1  __aeabi_memcpy4               
000025a1  __aeabi_memcpy8               
000025a1  memcpy                        
0000263d  BMP388_Init                   
000026d1  BMX160_softReset              
000027f9  BMP388_get_regs               
00002881  PCF8574A_Read                 
00002905  UART0_STDIO_Init              
00002985  __aeabi_memclr                
00002985  __aeabi_memclr4               
00002985  __aeabi_memclr8               
00002987  __aeabi_memset                
00002987  __aeabi_memset4               
00002987  __aeabi_memset8               
0000298d  memset                        
000029ff  __aeabi_idiv0                 
000029ff  __aeabi_ldiv0                 
00002a01  I2C0_Init                     
00002ae9  I2C_ReadByte                  
00002b55  IntEnable                     
00002bbd  __TI_decompress_lzss          
00002c25  BMX160_writeBmxReg            
00002c89  __error__                     
00002ced  PCF8574A_Write                
00002d4d  GPIOIntTypeSet                
00002da5  BMX160_defaultParamSettg      
00002df9  GPIOPinConfigure              
00002e45  I2CMasterInitExpClk           
00002e91  SWITCH_Init                   
00002edd  SYSTICK_Delay                 
00002f29  UARTFlushTx                   
00002f75  SystemInitialize              
00002ffd  __TI_auto_init_nobinit_nopinit
00003041  BMX160_wakeUp                 
000030c5  __aeabi_uidiv                 
000030c5  __aeabi_uidivmod              
00003105  PCF8574A_Init                 
00003145  BUZZ_BUZZER                   
000031bd  UARTgetc                      
000031f9  BMP388_read_all_regs          
00003235  BMP388_Int_Configure          
0000326d  SysCtlPeripheralReady         
000032a5  SysFlag_Check                 
000032dd  UART0_STDIO_IntHandler        
00003315  BMX160_softResetWorker        
0000334d  IntRegister                   
00003381  LED_LEDInit                   
000033b5  SysCtlPeripheralEnable        
000033e9  SysFlag_Clear                 
0000341d  SysFlag_Set                   
00003451  UARTFlushRx                   
00003485  _c_int00_noargs               
000034b9  init_Buzzer                   
000034ed  BMP388_Int_Handler            
0000351b  __aeabi_i2d                   
00003549  BUZZ_BUZZ                     
00003575  GPIODirModeSet                
000035cd  UARTEchoSet                   
00003621  BMX160_scan                   
00003649  SWITCH_SW1_Pressed            
0000366d  SWITCH_SW2_Pressed            
00003691  UARTprintf                    
000036b5  SysTick_Init                  
000036d5  __aeabi_ui2d                  
000036f5  SysTickIntRegister            
0000372d  GPIOPinTypeGPIOOutput         
00003749  BMP388_set_i2c_addr           
00003761  GPIOIntRegister               
00003779  UARTIntRegister               
00003791  GPIOPinTypeGPIOInput          
000037a7  GPIOPinTypeI2C                
000037bd  GPIOPinTypeI2CSCL             
000037d3  GPIOPinTypeUART               
000037e9  I2CMasterErr                  
00003801  SysCtlResetCauseClear         
00003815  SysTickEnable                 
00003829  SysTickIntEnable              
0000383d  SysClk_Init                   
0000384d  SysTickPeriodSet              
0000385d  __TI_decompress_none          
0000386b  BMP388_user_delay_ms          
00003877  GPIOIntEnable                 
00003885  SysCtlResetCauseGet           
00003891  SysFlag_Init                  
0000389d  __TI_zero_init                
000038a9  I2CMasterEnable               
000038b3  SysTick_IntHandler            
000038bd  UARTIntStatus                 
000038c7  I2CMasterBusy                 
000038cf  I2CMasterSlaveAddrSet         
000038d7  UARTIntEnable                 
000038df  malloc                        
000038e7  GPIOPinRead                   
000038ed  GPIOPinWrite                  
000038f3  ResetISR                      
000038f9  SysCtlDelay                   
000038ff  UARTClockSourceSet            
00003905  I2CMasterControl              
00003909  I2CMasterDataGet              
0000390d  I2CMasterDataPut              
00003911  _system_pre_init              
00003915  C$$EXIT                       
00003915  abort                         
00003c94  __TI_Handler_Table_Base       
00003ca0  __TI_Handler_Table_Limit      
00003cb0  __TI_CINIT_Base               
00003cc8  __TI_CINIT_Limit              
20000000  __start___llvm_prf_cnts       
20000000  __stop___llvm_prf_cnts        
20000000  g_pfnRAMVectors               
20000270  __stack                       
20000470  __STACK_TOP                   
20001270  __STACK_END                   
20001270  _sys_memory                   
20002670  dev                           
200027cc  Oaccel                        
200027d0  Obmx160                       
200027d4  Ogyro                         
200027d8  Omagn                         
200027dc  g_uiSysFlags                  
200027e0  resetCause                    
200027e4  buzDuration                   
200027e6  count                         
200027e8  pauseTime                     
200027ea  BMP388_addr                   
20002808  _lock                         
2000280c  _unlock                       
ffffffff  __TI_pprof_out_hndl           
ffffffff  __TI_prof_data_size           
ffffffff  __TI_prof_data_start          
ffffffff  __binit__                     
ffffffff  __c_args__                    
ffffffff  binit                         
UNDEFED   __mpu_init                    
UNDEFED   _system_post_cinit            

[166 symbols]
